target datalayout = "e-m:e-p270:32:32-p271:32:32-p272:64:64-i64:64-i128:128-f80:128-n8:16:32:64-S128"
target triple = "x86_64-pc-linux-gnu"

%struct.reassembly_table = type { ptr, ptr, ptr, ptr, ptr }
%struct.reassembly_table_functions = type { ptr, ptr, ptr, ptr, ptr, ptr }

@proto_register_pn_rt.ett = internal global [5 x ptr] [ptr @ett_pn_rt, ptr @ett_pn_rt_data_status, ptr @ett_pn_rt_sf, ptr @ett_pn_rt_frag, ptr @ett_pn_rt_frag_status], align 16
@.str.67 = private unnamed_addr constant [28 x i8] c"PROFINET Real-Time Protocol\00", align 1
@.str.68 = private unnamed_addr constant [6 x i8] c"PN-RT\00", align 1
@.str.69 = private unnamed_addr constant [6 x i8] c"pn_rt\00", align 1
@proto_pn_rt = internal global i32 0, align 4
@pn_rt_handle = internal global ptr null, align 8
@.str.70 = private unnamed_addr constant [16 x i8] c"summary_in_tree\00", align 1
@.str.71 = private unnamed_addr constant [36 x i8] c"Show PN-RT summary in protocol tree\00", align 1
@.str.72 = private unnamed_addr constant [68 x i8] c"Whether the PN-RT summary line should be shown in the protocol tree\00", align 1
@pn_rt_summary_in_tree = internal global i8 1, align 1
@.str.73 = private unnamed_addr constant [10 x i8] c"desegment\00", align 1
@.str.74 = private unnamed_addr constant [26 x i8] c"reassemble PNIO Fragments\00", align 1
@.str.75 = private unnamed_addr constant [47 x i8] c"Reassemble PNIO Fragments and get them decoded\00", align 1
@pnio_desegment = internal global i8 1, align 1
@.str.76 = private unnamed_addr constant [20 x i8] c"PROFINET RT payload\00", align 1
@heur_subdissector_list = internal global ptr null, align 8
@pdu_reassembly_table = internal global %struct.reassembly_table zeroinitializer, align 8
@addresses_reassembly_table_functions = external constant %struct.reassembly_table_functions, align 8

; Function Attrs: null_pointer_is_valid sspstrong uwtable
define hidden void @proto_register_pn_rt() #0 {
  %1 = alloca ptr, align 8
  %2 = alloca ptr, align 8
  call void @llvm.lifetime.start.p0(i64 8, ptr %1) #8
  call void @llvm.lifetime.start.p0(i64 8, ptr %2) #8
  %3 = call i32 @proto_register_protocol(ptr noundef @.str.67, ptr noundef @.str.68, ptr noundef @.str.69)
  store i32 %3, ptr @proto_pn_rt, align 4
  %4 = load i32, ptr @proto_pn_rt, align 4
  %5 = call ptr @register_dissector(ptr noundef @.str.69, ptr noundef @dissect_pn_rt, i32 noundef %4)
  store ptr %5, ptr @pn_rt_handle, align 8
  %6 = load i32, ptr @proto_pn_rt, align 4
  call void @proto_register_field_array(i32 noundef %6, ptr noundef @proto_register_pn_rt.hf, i32 noundef 31)
  call void @proto_register_subtree_array(ptr noundef @proto_register_pn_rt.ett, i32 noundef 5)
  %7 = load i32, ptr @proto_pn_rt, align 4
  %8 = call ptr @expert_register_protocol(i32 noundef %7)
  store ptr %8, ptr %2, align 8
  %9 = load ptr, ptr %2, align 8
  call void @expert_register_field_array(ptr noundef %9, ptr noundef @proto_register_pn_rt.ei, i32 noundef 1)
  %10 = load i32, ptr @proto_pn_rt, align 4
  %11 = call ptr @prefs_register_protocol(i32 noundef %10, ptr noundef null)
  store ptr %11, ptr %1, align 8
  %12 = load ptr, ptr %1, align 8
  call void @prefs_register_bool_preference(ptr noundef %12, ptr noundef @.str.70, ptr noundef @.str.71, ptr noundef @.str.72, ptr noundef @pn_rt_summary_in_tree)
  %13 = load ptr, ptr %1, align 8
  call void @prefs_register_bool_preference(ptr noundef %13, ptr noundef @.str.73, ptr noundef @.str.74, ptr noundef @.str.75, ptr noundef @pnio_desegment)
  %14 = load i32, ptr @proto_pn_rt, align 4
  %15 = call ptr @register_heur_dissector_list_with_description(ptr noundef @.str.69, ptr noundef @.str.76, i32 noundef %14)
  store ptr %15, ptr @heur_subdissector_list, align 8
  %16 = load i32, ptr @proto_pn_rt, align 4
  call void @init_pn(i32 noundef %16)
  call void @register_init_routine(ptr noundef @pnio_defragment_init)
  call void @register_cleanup_routine(ptr noundef @pnio_defragment_cleanup)
  call void @reassembly_table_register(ptr noundef @pdu_reassembly_table, ptr noundef @addresses_reassembly_table_functions)
  call void @llvm.lifetime.end.p0(i64 8, ptr %2) #8
  call void @llvm.lifetime.end.p0(i64 8, ptr %1) #8
  ret void
}