; Function Attrs: null_pointer_is_valid sspstrong uwtable
define hidden void @proto_register_pn_rt() local_unnamed_addr #0 {
  %1 = tail call i32 @proto_register_protocol(ptr noundef nonnull @.str.67, ptr noundef nonnull @.str.68, ptr noundef nonnull @.str.69)
  store i32 %1, ptr @proto_pn_rt, align 4
  %2 = tail call ptr @register_dissector(ptr noundef nonnull @.str.69, ptr noundef nonnull @dissect_pn_rt, i32 noundef %1)
  store ptr %2, ptr @pn_rt_handle, align 8
  %3 = load i32, ptr @proto_pn_rt, align 4
  tail call void @proto_register_field_array(i32 noundef %3, ptr noundef nonnull @proto_register_pn_rt.hf, i32 noundef 31)
  tail call void @proto_register_subtree_array(ptr noundef nonnull @proto_register_pn_rt.ett, i32 noundef 5)
  %4 = load i32, ptr @proto_pn_rt, align 4
  %5 = tail call ptr @expert_register_protocol(i32 noundef %4)
  tail call void @expert_register_field_array(ptr noundef %5, ptr noundef nonnull @proto_register_pn_rt.ei, i32 noundef 1)
  %6 = load i32, ptr @proto_pn_rt, align 4
  %7 = tail call ptr @prefs_register_protocol(i32 noundef %6, ptr noundef null)
  tail call void @prefs_register_bool_preference(ptr noundef %7, ptr noundef nonnull @.str.70, ptr noundef nonnull @.str.71, ptr noundef nonnull @.str.72, ptr noundef nonnull @pn_rt_summary_in_tree)
  tail call void @prefs_register_bool_preference(ptr noundef %7, ptr noundef nonnull @.str.73, ptr noundef nonnull @.str.74, ptr noundef nonnull @.str.75, ptr noundef nonnull @pnio_desegment)
  %8 = load i32, ptr @proto_pn_rt, align 4
  %9 = tail call ptr @register_heur_dissector_list_with_description(ptr noundef nonnull @.str.69, ptr noundef nonnull @.str.76, i32 noundef %8)
  store ptr %9, ptr @heur_subdissector_list, align 8
  %10 = load i32, ptr @proto_pn_rt, align 4
  tail call void @init_pn(i32 noundef %10)
  tail call void @register_init_routine(ptr noundef nonnull @pnio_defragment_init)
  tail call void @register_cleanup_routine(ptr noundef nonnull @pnio_defragment_cleanup)
  tail call void @reassembly_table_register(ptr noundef nonnull @pdu_reassembly_table, ptr noundef nonnull @addresses_reassembly_table_functions)
  ret void
}